; Function Attrs: mustprogress nounwind uwtable
define hidden void @_ZN20JvmtiEventController28set_extension_event_callbackEP12JvmtiEnvBaseiPFvP9_jvmtiEnvzE(ptr noundef %0, i32 noundef %1, ptr noundef %2) local_unnamed_addr #3 align 2 {
  %4 = load i32, ptr @_ZN7Threads18_number_of_threadsE, align 4
  %5 = icmp eq i32 %4, 0
  br i1 %5, label %6, label %7

6:                                                ; preds = %3
  tail call void @_ZN27JvmtiEventControllerPrivate28set_extension_event_callbackEP12JvmtiEnvBaseiPFvP9_jvmtiEnvzE(ptr noundef %0, i32 noundef %1, ptr noundef %2)
  br label %_ZN11MutexLockerD2Ev.exit

7:                                                ; preds = %3
  %8 = load ptr, ptr @JvmtiThreadState_lock, align 8
  %.not.i.i = icmp eq ptr %8, null
  br i1 %.not.i.i, label %_ZN11MutexLockerC2EP5MutexNS0_18SafepointCheckFlagE.exit.thread, label %9

_ZN11MutexLockerC2EP5MutexNS0_18SafepointCheckFlagE.exit.thread: ; preds = %7
  tail call void @_ZN27JvmtiEventControllerPrivate28set_extension_event_callbackEP12JvmtiEnvBaseiPFvP9_jvmtiEnvzE(ptr noundef %0, i32 noundef %1, ptr noundef %2)
  br label %_ZN11MutexLockerD2Ev.exit

9:                                                ; preds = %7
  tail call void @_ZN5Mutex4lockEv(ptr noundef nonnull align 8 dereferenceable(104) %8) #15
  tail call void @_ZN27JvmtiEventControllerPrivate28set_extension_event_callbackEP12JvmtiEnvBaseiPFvP9_jvmtiEnvzE(ptr noundef %0, i32 noundef %1, ptr noundef %2)
  tail call void @_ZN5Mutex6unlockEv(ptr noundef nonnull align 8 dereferenceable(104) %8) #15
  br label %_ZN11MutexLockerD2Ev.exit

_ZN11MutexLockerD2Ev.exit:                        ; preds = %9, %_ZN11MutexLockerC2EP5MutexNS0_18SafepointCheckFlagE.exit.thread, %6
  ret void
}